target datalayout = "e-m:e-p270:32:32-p271:32:32-p272:64:64-i64:64-i128:128-f80:128-n8:16:32:64-S128"
target triple = "x86_64-pc-linux-gnu"

%class.AudioRouting = type { i8, i32 }
%class.AudioRoutingFilter = type <{ %class.QIODevice, ptr, i8, [3 x i8], %class.AudioRouting, [4 x i8] }>
%class.QIODevice = type { %class.QObject }
%class.QObject = type { ptr, %class.QScopedPointer }
%class.QScopedPointer = type { ptr }

; Function Attrs: mustprogress null_pointer_is_valid sspstrong uwtable
define noundef i64 @_ZNK18AudioRoutingFilter4sizeEv(ptr noundef align 8 dereferenceable_or_null(36) %0) unnamed_addr #0 align 2 {
  %2 = alloca i64, align 8
  %3 = alloca ptr, align 8
  store ptr %0, ptr %3, align 8
  %4 = load ptr, ptr %3, align 8
  %5 = getelementptr inbounds nuw %class.AudioRoutingFilter, ptr %4, i32 0, i32 2
  %6 = load i8, ptr %5, align 8, !range !6, !noundef !7
  %7 = trunc i8 %6 to i1
  br i1 %7, label %15, label %8

8:                                                ; preds = %1
  %9 = getelementptr inbounds nuw %class.AudioRoutingFilter, ptr %4, i32 0, i32 1
  %10 = load ptr, ptr %9, align 8
  %11 = load ptr, ptr %10, align 8
  %12 = getelementptr inbounds ptr, ptr %11, i64 16
  %13 = load ptr, ptr %12, align 8
  %14 = call noundef i64 %13(ptr noundef align 8 dereferenceable_or_null(16) %10)
  store i64 %14, ptr %2, align 8
  br label %23

15:                                               ; preds = %1
  %16 = getelementptr inbounds nuw %class.AudioRoutingFilter, ptr %4, i32 0, i32 1
  %17 = load ptr, ptr %16, align 8
  %18 = load ptr, ptr %17, align 8
  %19 = getelementptr inbounds ptr, ptr %18, i64 16
  %20 = load ptr, ptr %19, align 8
  %21 = call noundef i64 %20(ptr noundef align 8 dereferenceable_or_null(16) %17)
  %22 = mul i64 %21, 2
  store i64 %22, ptr %2, align 8
  br label %23

23:                                               ; preds = %15, %8
  %24 = load i64, ptr %2, align 8
  ret i64 %24
}